; Function Attrs: nounwind sspstrong uwtable
define dso_local i32 @cpu_write_elf64_note(ptr noundef %f, ptr noundef %cpu, i32 noundef %cpuid, ptr noundef %opaque) local_unnamed_addr #0 {
entry:
  %call.i = tail call ptr @object_get_class(ptr noundef %cpu) #3
  %call1.i = tail call ptr @object_class_dynamic_cast_assert(ptr noundef %call.i, ptr noundef nonnull @.str.3, ptr noundef nonnull @.str.4, i32 noundef 64, ptr noundef nonnull @__func__.CPU_GET_CLASS) #3
  %sysemu_ops = getelementptr inbounds nuw i8, ptr %call1.i, i64 320
  %0 = load ptr, ptr %sysemu_ops, align 8
  %write_elf64_note = getelementptr inbounds nuw i8, ptr %0, i64 56
  %1 = load ptr, ptr %write_elf64_note, align 8
  %tobool.not = icmp eq ptr %1, null
  br i1 %tobool.not, label %return, label %if.end

if.end:                                           ; preds = %entry
  %call3 = tail call i32 %1(ptr noundef %f, ptr noundef %cpu, i32 noundef %cpuid, ptr noundef %opaque) #3
  br label %return

return:                                           ; preds = %entry, %if.end
  %retval.0 = phi i32 [ %call3, %if.end ], [ -1, %entry ]
  ret i32 %retval.0
}